target datalayout = "e-m:e-p270:32:32-p271:32:32-p272:64:64-i64:64-i128:128-f80:128-n8:16:32:64-S128"
target triple = "x86_64-pc-linux-gnu"

%class.btMatrix3x3 = type { [3 x %class.btVector3] }
%class.btVector3 = type { [4 x float] }

; Function Attrs: inlinehint mustprogress nounwind uwtable
define linkonce_odr dso_local noundef ptr @_ZN9btVector3cvPfEv(ptr noundef nonnull align 4 dereferenceable(16) %0) #4 comdat align 2 {
  %2 = alloca ptr, align 8
  store ptr %0, ptr %2, align 8, !tbaa !52
  %3 = load ptr, ptr %2, align 8
  %4 = getelementptr inbounds nuw %class.btVector3, ptr %3, i32 0, i32 0
  %5 = getelementptr inbounds [4 x float], ptr %4, i64 0, i64 0
  ret ptr %5
}

; Function Attrs: inlinehint mustprogress nounwind uwtable
define linkonce_odr dso_local noundef nonnull align 4 dereferenceable(16) ptr @_ZN11btMatrix3x3ixEi(ptr noundef nonnull align 4 dereferenceable(48) %0, i32 noundef %1) #4 comdat align 2 {
  %3 = alloca ptr, align 8
  %4 = alloca i32, align 4
  store ptr %0, ptr %3, align 8, !tbaa !57
  store i32 %1, ptr %4, align 4, !tbaa !9
  %5 = load ptr, ptr %3, align 8
  %6 = getelementptr inbounds nuw %class.btMatrix3x3, ptr %5, i32 0, i32 0
  %7 = load i32, ptr %4, align 4, !tbaa !9
  %8 = sext i32 %7 to i64
  %9 = getelementptr inbounds [3 x %class.btVector3], ptr %6, i64 0, i64 %8
  ret ptr %9
}

; Function Attrs: inlinehint mustprogress nounwind uwtable
define linkonce_odr dso_local noundef ptr @_ZNK9btVector3cvPKfEv(ptr noundef nonnull align 4 dereferenceable(16) %0) #4 comdat align 2 {
  %2 = alloca ptr, align 8
  store ptr %0, ptr %2, align 8, !tbaa !52
  %3 = load ptr, ptr %2, align 8
  %4 = getelementptr inbounds nuw %class.btVector3, ptr %3, i32 0, i32 0
  %5 = getelementptr inbounds [4 x float], ptr %4, i64 0, i64 0
  ret ptr %5
}

; Function Attrs: mustprogress uwtable
define linkonce_odr dso_local noundef nonnull align 4 dereferenceable(4) ptr @_ZN24btInverseDynamicsBullet35mat33clEii(ptr noundef nonnull align 4 dereferenceable(48) %0, i32 noundef %1, i32 noundef %2) #2 comdat align 2 {
  %4 = alloca ptr, align 8
  %5 = alloca i32, align 4
  %6 = alloca i32, align 4
  store ptr %0, ptr %4, align 8, !tbaa !22
  store i32 %1, ptr %5, align 4, !tbaa !9
  store i32 %2, ptr %6, align 4, !tbaa !9
  %7 = load ptr, ptr %4, align 8
  %8 = load i32, ptr %5, align 4, !tbaa !9
  %9 = call noundef nonnull align 4 dereferenceable(16) ptr @_ZN11btMatrix3x3ixEi(ptr noundef nonnull align 4 dereferenceable(48) %7, i32 noundef %8)
  %10 = call noundef ptr @_ZN9btVector3cvPfEv(ptr noundef nonnull align 4 dereferenceable(16) %9)
  %11 = load i32, ptr %6, align 4, !tbaa !9
  %12 = sext i32 %11 to i64
  %13 = getelementptr inbounds float, ptr %10, i64 %12
  ret ptr %13
}

; Function Attrs: mustprogress uwtable
define linkonce_odr dso_local noundef nonnull align 4 dereferenceable(4) ptr @_ZNK24btInverseDynamicsBullet34vec3clEi(ptr noundef nonnull align 4 dereferenceable(16) %0, i32 noundef %1) #2 comdat align 2 {
  %3 = alloca ptr, align 8
  %4 = alloca i32, align 4
  store ptr %0, ptr %3, align 8, !tbaa !12
  store i32 %1, ptr %4, align 4, !tbaa !9
  %5 = load ptr, ptr %3, align 8
  %6 = call noundef ptr @_ZNK9btVector3cvPKfEv(ptr noundef nonnull align 4 dereferenceable(16) %5)
  %7 = load i32, ptr %4, align 4, !tbaa !9
  %8 = sext i32 %7 to i64
  %9 = getelementptr inbounds float, ptr %6, i64 %8
  ret ptr %9
}

; Function Attrs: inlinehint mustprogress nounwind uwtable
define linkonce_odr dso_local noundef float @_Z5btSinf(float noundef %0) #4 comdat {
  %2 = alloca float, align 4
  store float %0, ptr %2, align 4, !tbaa !14
  %3 = load float, ptr %2, align 4, !tbaa !14
  %4 = call float @sinf(float noundef %3) #10, !tbaa !9
  ret float %4
}

; Function Attrs: inlinehint mustprogress nounwind uwtable
define linkonce_odr dso_local noundef float @_Z5btCosf(float noundef %0) #4 comdat {
  %2 = alloca float, align 4
  store float %0, ptr %2, align 4, !tbaa !14
  %3 = load float, ptr %2, align 4, !tbaa !14
  %4 = call float @cosf(float noundef %3) #10, !tbaa !9
  ret float %4
}

; Function Attrs: mustprogress uwtable
define dso_local void @_ZN24btInverseDynamicsBullet324bodyTParentFromAxisAngleERKNS_4vec3ERKfPNS_5mat33E(ptr noundef nonnull align 4 dereferenceable(16) %0, ptr noundef nonnull align 4 dereferenceable(4) %1, ptr noundef %2) #2 {
  %4 = alloca ptr, align 8
  %5 = alloca ptr, align 8
  %6 = alloca ptr, align 8
  %7 = alloca float, align 4
  %8 = alloca float, align 4
  %9 = alloca float, align 4
  %10 = alloca ptr, align 8
  %11 = alloca ptr, align 8
  %12 = alloca ptr, align 8
  store ptr %0, ptr %4, align 8, !tbaa !12
  store ptr %1, ptr %5, align 8, !tbaa !41
  store ptr %2, ptr %6, align 8, !tbaa !22
  call void @llvm.lifetime.start.p0(i64 4, ptr %7) #10
  %13 = load ptr, ptr %5, align 8, !tbaa !41
  %14 = load float, ptr %13, align 4, !tbaa !14
  %15 = call noundef float @_Z5btCosf(float noundef %14)
  store float %15, ptr %7, align 4, !tbaa !14
  call void @llvm.lifetime.start.p0(i64 4, ptr %8) #10
  %16 = load ptr, ptr %5, align 8, !tbaa !41
  %17 = load float, ptr %16, align 4, !tbaa !14
  %18 = call noundef float @_Z5btSinf(float noundef %17)
  %19 = fneg float %18
  store float %19, ptr %8, align 4, !tbaa !14
  call void @llvm.lifetime.start.p0(i64 4, ptr %9) #10
  %20 = load float, ptr %7, align 4, !tbaa !14
  %21 = fpext float %20 to double
  %22 = fsub double 1.000000e+00, %21
  %23 = fptrunc double %22 to float
  store float %23, ptr %9, align 4, !tbaa !14
  call void @llvm.lifetime.start.p0(i64 8, ptr %10) #10
  %24 = load ptr, ptr %4, align 8, !tbaa !12
  %25 = call noundef nonnull align 4 dereferenceable(4) ptr @_ZNK24btInverseDynamicsBullet34vec3clEi(ptr noundef nonnull align 4 dereferenceable(16) %24, i32 noundef 0)
  store ptr %25, ptr %10, align 8, !tbaa !41
  call void @llvm.lifetime.start.p0(i64 8, ptr %11) #10
  %26 = load ptr, ptr %4, align 8, !tbaa !12
  %27 = call noundef nonnull align 4 dereferenceable(4) ptr @_ZNK24btInverseDynamicsBullet34vec3clEi(ptr noundef nonnull align 4 dereferenceable(16) %26, i32 noundef 1)
  store ptr %27, ptr %11, align 8, !tbaa !41
  call void @llvm.lifetime.start.p0(i64 8, ptr %12) #10
  %28 = load ptr, ptr %4, align 8, !tbaa !12
  %29 = call noundef nonnull align 4 dereferenceable(4) ptr @_ZNK24btInverseDynamicsBullet34vec3clEi(ptr noundef nonnull align 4 dereferenceable(16) %28, i32 noundef 2)
  store ptr %29, ptr %12, align 8, !tbaa !41
  %30 = load ptr, ptr %10, align 8, !tbaa !41
  %31 = load float, ptr %30, align 4, !tbaa !14
  %32 = load ptr, ptr %10, align 8, !tbaa !41
  %33 = load float, ptr %32, align 4, !tbaa !14
  %34 = fmul float %31, %33
  %35 = load float, ptr %9, align 4, !tbaa !14
  %36 = load float, ptr %7, align 4, !tbaa !14
  %37 = call float @llvm.fmuladd.f32(float %34, float %35, float %36)
  %38 = load ptr, ptr %6, align 8, !tbaa !22
  %39 = call noundef nonnull align 4 dereferenceable(4) ptr @_ZN24btInverseDynamicsBullet35mat33clEii(ptr noundef nonnull align 4 dereferenceable(48) %38, i32 noundef 0, i32 noundef 0)
  store float %37, ptr %39, align 4, !tbaa !14
  %40 = load ptr, ptr %10, align 8, !tbaa !41
  %41 = load float, ptr %40, align 4, !tbaa !14
  %42 = load ptr, ptr %11, align 8, !tbaa !41
  %43 = load float, ptr %42, align 4, !tbaa !14
  %44 = fmul float %41, %43
  %45 = load float, ptr %9, align 4, !tbaa !14
  %46 = load ptr, ptr %12, align 8, !tbaa !41
  %47 = load float, ptr %46, align 4, !tbaa !14
  %48 = load float, ptr %8, align 4, !tbaa !14
  %49 = fmul float %47, %48
  %50 = fneg float %49
  %51 = call float @llvm.fmuladd.f32(float %44, float %45, float %50)
  %52 = load ptr, ptr %6, align 8, !tbaa !22
  %53 = call noundef nonnull align 4 dereferenceable(4) ptr @_ZN24btInverseDynamicsBullet35mat33clEii(ptr noundef nonnull align 4 dereferenceable(48) %52, i32 noundef 0, i32 noundef 1)
  store float %51, ptr %53, align 4, !tbaa !14
  %54 = load ptr, ptr %10, align 8, !tbaa !41
  %55 = load float, ptr %54, align 4, !tbaa !14
  %56 = load ptr, ptr %12, align 8, !tbaa !41
  %57 = load float, ptr %56, align 4, !tbaa !14
  %58 = fmul float %55, %57
  %59 = load float, ptr %9, align 4, !tbaa !14
  %60 = load ptr, ptr %11, align 8, !tbaa !41
  %61 = load float, ptr %60, align 4, !tbaa !14
  %62 = load float, ptr %8, align 4, !tbaa !14
  %63 = fmul float %61, %62
  %64 = call float @llvm.fmuladd.f32(float %58, float %59, float %63)
  %65 = load ptr, ptr %6, align 8, !tbaa !22
  %66 = call noundef nonnull align 4 dereferenceable(4) ptr @_ZN24btInverseDynamicsBullet35mat33clEii(ptr noundef nonnull align 4 dereferenceable(48) %65, i32 noundef 0, i32 noundef 2)
  store float %64, ptr %66, align 4, !tbaa !14
  %67 = load ptr, ptr %10, align 8, !tbaa !41
  %68 = load float, ptr %67, align 4, !tbaa !14
  %69 = load ptr, ptr %11, align 8, !tbaa !41
  %70 = load float, ptr %69, align 4, !tbaa !14
  %71 = fmul float %68, %70
  %72 = load float, ptr %9, align 4, !tbaa !14
  %73 = load ptr, ptr %12, align 8, !tbaa !41
  %74 = load float, ptr %73, align 4, !tbaa !14
  %75 = load float, ptr %8, align 4, !tbaa !14
  %76 = fmul float %74, %75
  %77 = call float @llvm.fmuladd.f32(float %71, float %72, float %76)
  %78 = load ptr, ptr %6, align 8, !tbaa !22
  %79 = call noundef nonnull align 4 dereferenceable(4) ptr @_ZN24btInverseDynamicsBullet35mat33clEii(ptr noundef nonnull align 4 dereferenceable(48) %78, i32 noundef 1, i32 noundef 0)
  store float %77, ptr %79, align 4, !tbaa !14
  %80 = load ptr, ptr %11, align 8, !tbaa !41
  %81 = load float, ptr %80, align 4, !tbaa !14
  %82 = load ptr, ptr %11, align 8, !tbaa !41
  %83 = load float, ptr %82, align 4, !tbaa !14
  %84 = fmul float %81, %83
  %85 = load float, ptr %9, align 4, !tbaa !14
  %86 = load float, ptr %7, align 4, !tbaa !14
  %87 = call float @llvm.fmuladd.f32(float %84, float %85, float %86)
  %88 = load ptr, ptr %6, align 8, !tbaa !22
  %89 = call noundef nonnull align 4 dereferenceable(4) ptr @_ZN24btInverseDynamicsBullet35mat33clEii(ptr noundef nonnull align 4 dereferenceable(48) %88, i32 noundef 1, i32 noundef 1)
  store float %87, ptr %89, align 4, !tbaa !14
  %90 = load ptr, ptr %11, align 8, !tbaa !41
  %91 = load float, ptr %90, align 4, !tbaa !14
  %92 = load ptr, ptr %12, align 8, !tbaa !41
  %93 = load float, ptr %92, align 4, !tbaa !14
  %94 = fmul float %91, %93
  %95 = load float, ptr %9, align 4, !tbaa !14
  %96 = load ptr, ptr %10, align 8, !tbaa !41
  %97 = load float, ptr %96, align 4, !tbaa !14
  %98 = load float, ptr %8, align 4, !tbaa !14
  %99 = fmul float %97, %98
  %100 = fneg float %99
  %101 = call float @llvm.fmuladd.f32(float %94, float %95, float %100)
  %102 = load ptr, ptr %6, align 8, !tbaa !22
  %103 = call noundef nonnull align 4 dereferenceable(4) ptr @_ZN24btInverseDynamicsBullet35mat33clEii(ptr noundef nonnull align 4 dereferenceable(48) %102, i32 noundef 1, i32 noundef 2)
  store float %101, ptr %103, align 4, !tbaa !14
  %104 = load ptr, ptr %10, align 8, !tbaa !41
  %105 = load float, ptr %104, align 4, !tbaa !14
  %106 = load ptr, ptr %12, align 8, !tbaa !41
  %107 = load float, ptr %106, align 4, !tbaa !14
  %108 = fmul float %105, %107
  %109 = load float, ptr %9, align 4, !tbaa !14
  %110 = load ptr, ptr %11, align 8, !tbaa !41
  %111 = load float, ptr %110, align 4, !tbaa !14
  %112 = load float, ptr %8, align 4, !tbaa !14
  %113 = fmul float %111, %112
  %114 = fneg float %113
  %115 = call float @llvm.fmuladd.f32(float %108, float %109, float %114)
  %116 = load ptr, ptr %6, align 8, !tbaa !22
  %117 = call noundef nonnull align 4 dereferenceable(4) ptr @_ZN24btInverseDynamicsBullet35mat33clEii(ptr noundef nonnull align 4 dereferenceable(48) %116, i32 noundef 2, i32 noundef 0)
  store float %115, ptr %117, align 4, !tbaa !14
  %118 = load ptr, ptr %11, align 8, !tbaa !41
  %119 = load float, ptr %118, align 4, !tbaa !14
  %120 = load ptr, ptr %12, align 8, !tbaa !41
  %121 = load float, ptr %120, align 4, !tbaa !14
  %122 = fmul float %119, %121
  %123 = load float, ptr %9, align 4, !tbaa !14
  %124 = load ptr, ptr %10, align 8, !tbaa !41
  %125 = load float, ptr %124, align 4, !tbaa !14
  %126 = load float, ptr %8, align 4, !tbaa !14
  %127 = fmul float %125, %126
  %128 = call float @llvm.fmuladd.f32(float %122, float %123, float %127)
  %129 = load ptr, ptr %6, align 8, !tbaa !22
  %130 = call noundef nonnull align 4 dereferenceable(4) ptr @_ZN24btInverseDynamicsBullet35mat33clEii(ptr noundef nonnull align 4 dereferenceable(48) %129, i32 noundef 2, i32 noundef 1)
  store float %128, ptr %130, align 4, !tbaa !14
  %131 = load ptr, ptr %12, align 8, !tbaa !41
  %132 = load float, ptr %131, align 4, !tbaa !14
  %133 = load ptr, ptr %12, align 8, !tbaa !41
  %134 = load float, ptr %133, align 4, !tbaa !14
  %135 = fmul float %132, %134
  %136 = load float, ptr %9, align 4, !tbaa !14
  %137 = load float, ptr %7, align 4, !tbaa !14
  %138 = call float @llvm.fmuladd.f32(float %135, float %136, float %137)
  %139 = load ptr, ptr %6, align 8, !tbaa !22
  %140 = call noundef nonnull align 4 dereferenceable(4) ptr @_ZN24btInverseDynamicsBullet35mat33clEii(ptr noundef nonnull align 4 dereferenceable(48) %139, i32 noundef 2, i32 noundef 2)
  store float %138, ptr %140, align 4, !tbaa !14
  call void @llvm.lifetime.end.p0(i64 8, ptr %12) #10
  call void @llvm.lifetime.end.p0(i64 8, ptr %11) #10
  call void @llvm.lifetime.end.p0(i64 8, ptr %10) #10
  call void @llvm.lifetime.end.p0(i64 4, ptr %9) #10
  call void @llvm.lifetime.end.p0(i64 4, ptr %8) #10
  call void @llvm.lifetime.end.p0(i64 4, ptr %7) #10
  ret void
}