; Function Attrs: mustprogress nofree nounwind willreturn memory(write, argmem: readwrite) uwtable
define dso_local void @_ZN24btInverseDynamicsBullet324bodyTParentFromAxisAngleERKNS_4vec3ERKfPNS_5mat33E(ptr noundef nonnull readonly align 4 captures(none) dereferenceable(16) %0, ptr noundef nonnull readonly align 4 captures(none) dereferenceable(4) %1, ptr noundef writeonly captures(none) initializes((0, 12), (16, 28), (32, 44)) %2) local_unnamed_addr #9 {
  %4 = load float, ptr %1, align 4, !tbaa !4
  %5 = tail call noundef float @cosf(float noundef %4) #14, !tbaa !32
  %6 = tail call noundef float @sinf(float noundef %4) #14, !tbaa !32
  %7 = fneg float %6
  %8 = fsub float 1.000000e+00, %5
  %9 = getelementptr inbounds nuw i8, ptr %0, i64 4
  %10 = getelementptr inbounds nuw i8, ptr %0, i64 8
  %11 = load float, ptr %0, align 4, !tbaa !4
  %12 = fmul float %11, %11
  %13 = tail call float @llvm.fmuladd.f32(float %12, float %8, float %5)
  store float %13, ptr %2, align 4, !tbaa !4
  %14 = load float, ptr %0, align 4, !tbaa !4
  %15 = load float, ptr %9, align 4, !tbaa !4
  %16 = fmul float %14, %15
  %17 = load float, ptr %10, align 4, !tbaa !4
  %18 = fmul float %6, %17
  %19 = tail call float @llvm.fmuladd.f32(float %16, float %8, float %18)
  %20 = getelementptr inbounds nuw i8, ptr %2, i64 4
  store float %19, ptr %20, align 4, !tbaa !4
  %21 = load float, ptr %0, align 4, !tbaa !4
  %22 = load float, ptr %10, align 4, !tbaa !4
  %23 = fmul float %21, %22
  %24 = load float, ptr %9, align 4, !tbaa !4
  %25 = fmul float %24, %7
  %26 = tail call float @llvm.fmuladd.f32(float %23, float %8, float %25)
  %27 = getelementptr inbounds nuw i8, ptr %2, i64 8
  store float %26, ptr %27, align 4, !tbaa !4
  %28 = load float, ptr %0, align 4, !tbaa !4
  %29 = load float, ptr %9, align 4, !tbaa !4
  %30 = fmul float %28, %29
  %31 = load float, ptr %10, align 4, !tbaa !4
  %32 = fmul float %31, %7
  %33 = tail call float @llvm.fmuladd.f32(float %30, float %8, float %32)
  %34 = getelementptr inbounds nuw i8, ptr %2, i64 16
  store float %33, ptr %34, align 4, !tbaa !4
  %35 = load float, ptr %9, align 4, !tbaa !4
  %36 = fmul float %35, %35
  %37 = tail call float @llvm.fmuladd.f32(float %36, float %8, float %5)
  %38 = getelementptr inbounds nuw i8, ptr %2, i64 20
  store float %37, ptr %38, align 4, !tbaa !4
  %39 = load float, ptr %9, align 4, !tbaa !4
  %40 = load float, ptr %10, align 4, !tbaa !4
  %41 = fmul float %39, %40
  %42 = load float, ptr %0, align 4, !tbaa !4
  %43 = fmul float %6, %42
  %44 = tail call float @llvm.fmuladd.f32(float %41, float %8, float %43)
  %45 = getelementptr inbounds nuw i8, ptr %2, i64 24
  store float %44, ptr %45, align 4, !tbaa !4
  %46 = load float, ptr %0, align 4, !tbaa !4
  %47 = load float, ptr %10, align 4, !tbaa !4
  %48 = fmul float %46, %47
  %49 = load float, ptr %9, align 4, !tbaa !4
  %50 = fmul float %6, %49
  %51 = tail call float @llvm.fmuladd.f32(float %48, float %8, float %50)
  %52 = getelementptr inbounds nuw i8, ptr %2, i64 32
  store float %51, ptr %52, align 4, !tbaa !4
  %53 = load float, ptr %9, align 4, !tbaa !4
  %54 = load float, ptr %10, align 4, !tbaa !4
  %55 = fmul float %53, %54
  %56 = load float, ptr %0, align 4, !tbaa !4
  %57 = fmul float %56, %7
  %58 = tail call float @llvm.fmuladd.f32(float %55, float %8, float %57)
  %59 = getelementptr inbounds nuw i8, ptr %2, i64 36
  store float %58, ptr %59, align 4, !tbaa !4
  %60 = load float, ptr %10, align 4, !tbaa !4
  %61 = fmul float %60, %60
  %62 = tail call float @llvm.fmuladd.f32(float %61, float %8, float %5)
  %63 = getelementptr inbounds nuw i8, ptr %2, i64 40
  store float %62, ptr %63, align 4, !tbaa !4
  ret void
}